target datalayout = "e-m:e-p270:32:32-p271:32:32-p272:64:64-i64:64-i128:128-f80:128-n8:16:32:64-S128"
target triple = "x86_64-pc-linux-gnu"

%struct.SurfaceDataRasInfo = type { %struct.SurfaceDataBounds, ptr, i32, i32, i32, i32, ptr, ptr, ptr, ptr, ptr, ptr, i32, %union.anon.0 }
%struct.SurfaceDataBounds = type { i32, i32, i32, i32 }
%union.anon.0 = type { ptr, [56 x i8] }

; Function Attrs: nounwind uwtable
define hidden void @ByteIndexedBmToByteGrayXparBgCopy(ptr noundef %0, ptr noundef %1, i32 noundef %2, i32 noundef %3, i32 noundef %4, ptr noundef %5, ptr noundef %6, ptr noundef %7, ptr noundef %8) #1 {
  %10 = alloca ptr, align 8
  %11 = alloca ptr, align 8
  %12 = alloca i32, align 4
  %13 = alloca i32, align 4
  %14 = alloca i32, align 4
  %15 = alloca ptr, align 8
  %16 = alloca ptr, align 8
  %17 = alloca ptr, align 8
  %18 = alloca ptr, align 8
  %19 = alloca [256 x i32], align 16
  %20 = alloca ptr, align 8
  %21 = alloca i32, align 4
  %22 = alloca ptr, align 8
  %23 = alloca i32, align 4
  %24 = alloca i32, align 4
  %25 = alloca i32, align 4
  %26 = alloca i32, align 4
  %27 = alloca i32, align 4
  %28 = alloca ptr, align 8
  %29 = alloca ptr, align 8
  %30 = alloca i32, align 4
  %31 = alloca i32, align 4
  %32 = alloca i32, align 4
  %33 = alloca i32, align 4
  store ptr %0, ptr %10, align 8
  store ptr %1, ptr %11, align 8
  store i32 %2, ptr %12, align 4
  store i32 %3, ptr %13, align 4
  store i32 %4, ptr %14, align 4
  store ptr %5, ptr %15, align 8
  store ptr %6, ptr %16, align 8
  store ptr %7, ptr %17, align 8
  store ptr %8, ptr %18, align 8
  br label %34

34:                                               ; preds = %9
  %35 = load ptr, ptr %15, align 8
  %36 = getelementptr inbounds %struct.SurfaceDataRasInfo, ptr %35, i32 0, i32 6
  %37 = load ptr, ptr %36, align 8
  store ptr %37, ptr %20, align 8
  %38 = load ptr, ptr %15, align 8
  %39 = getelementptr inbounds %struct.SurfaceDataRasInfo, ptr %38, i32 0, i32 5
  %40 = load i32, ptr %39, align 4
  store i32 %40, ptr %21, align 4
  %41 = load i32, ptr %21, align 4
  %42 = icmp uge i32 %41, 256
  br i1 %42, label %43, label %44

43:                                               ; preds = %34
  store i32 256, ptr %21, align 4
  br label %58

44:                                               ; preds = %34
  %45 = load i32, ptr %21, align 4
  %46 = zext i32 %45 to i64
  %47 = getelementptr inbounds [256 x i32], ptr %19, i64 0, i64 %46
  store ptr %47, ptr %22, align 8
  br label %48

48:                                               ; preds = %52, %44
  %49 = load i32, ptr %14, align 4
  %50 = load ptr, ptr %22, align 8
  %51 = getelementptr inbounds i32, ptr %50, i64 0
  store i32 %49, ptr %51, align 4
  br label %52

52:                                               ; preds = %48
  %53 = load ptr, ptr %22, align 8
  %54 = getelementptr inbounds i32, ptr %53, i32 1
  store ptr %54, ptr %22, align 8
  %55 = getelementptr inbounds [256 x i32], ptr %19, i64 0, i64 256
  %56 = icmp ult ptr %54, %55
  br i1 %56, label %48, label %57, !llvm.loop !49

57:                                               ; preds = %52
  br label %58

58:                                               ; preds = %57, %43
  br label %59

59:                                               ; preds = %58
  store i32 0, ptr %23, align 4
  br label %60

60:                                               ; preds = %104, %59
  br label %61

61:                                               ; preds = %60
  %62 = load ptr, ptr %20, align 8
  %63 = load i32, ptr %23, align 4
  %64 = zext i32 %63 to i64
  %65 = getelementptr inbounds i32, ptr %62, i64 %64
  %66 = load i32, ptr %65, align 4
  store i32 %66, ptr %24, align 4
  %67 = load i32, ptr %24, align 4
  %68 = icmp slt i32 %67, 0
  br i1 %68, label %69, label %97

69:                                               ; preds = %61
  br label %70

70:                                               ; preds = %69
  br label %71

71:                                               ; preds = %70
  %72 = load i32, ptr %24, align 4
  %73 = and i32 %72, 255
  store i32 %73, ptr %27, align 4
  %74 = load i32, ptr %24, align 4
  %75 = ashr i32 %74, 8
  %76 = and i32 %75, 255
  store i32 %76, ptr %26, align 4
  %77 = load i32, ptr %24, align 4
  %78 = ashr i32 %77, 16
  %79 = and i32 %78, 255
  store i32 %79, ptr %25, align 4
  br label %80

80:                                               ; preds = %71
  %81 = load i32, ptr %25, align 4
  %82 = mul nsw i32 77, %81
  %83 = load i32, ptr %26, align 4
  %84 = mul nsw i32 150, %83
  %85 = add nsw i32 %82, %84
  %86 = load i32, ptr %27, align 4
  %87 = mul nsw i32 29, %86
  %88 = add nsw i32 %85, %87
  %89 = add nsw i32 %88, 128
  %90 = sdiv i32 %89, 256
  %91 = trunc i32 %90 to i8
  %92 = zext i8 %91 to i32
  %93 = load i32, ptr %23, align 4
  %94 = zext i32 %93 to i64
  %95 = getelementptr inbounds [256 x i32], ptr %19, i64 0, i64 %94
  store i32 %92, ptr %95, align 4
  br label %96

96:                                               ; preds = %80
  br label %102

97:                                               ; preds = %61
  %98 = load i32, ptr %14, align 4
  %99 = load i32, ptr %23, align 4
  %100 = zext i32 %99 to i64
  %101 = getelementptr inbounds [256 x i32], ptr %19, i64 0, i64 %100
  store i32 %98, ptr %101, align 4
  br label %102

102:                                              ; preds = %97, %96
  br label %103

103:                                              ; preds = %102
  br label %104

104:                                              ; preds = %103
  %105 = load i32, ptr %23, align 4
  %106 = add i32 %105, 1
  store i32 %106, ptr %23, align 4
  %107 = load i32, ptr %21, align 4
  %108 = icmp ult i32 %106, %107
  br i1 %108, label %60, label %109, !llvm.loop !50

109:                                              ; preds = %104
  br label %110

110:                                              ; preds = %109
  br label %111

111:                                              ; preds = %110
  br label %112

112:                                              ; preds = %111
  %113 = load ptr, ptr %10, align 8
  store ptr %113, ptr %28, align 8
  %114 = load ptr, ptr %11, align 8
  store ptr %114, ptr %29, align 8
  %115 = load ptr, ptr %15, align 8
  %116 = getelementptr inbounds %struct.SurfaceDataRasInfo, ptr %115, i32 0, i32 4
  %117 = load i32, ptr %116, align 8
  store i32 %117, ptr %30, align 4
  %118 = load ptr, ptr %16, align 8
  %119 = getelementptr inbounds %struct.SurfaceDataRasInfo, ptr %118, i32 0, i32 4
  %120 = load i32, ptr %119, align 8
  store i32 %120, ptr %31, align 4
  %121 = load i32, ptr %12, align 4
  %122 = mul i32 %121, 1
  %123 = load i32, ptr %30, align 4
  %124 = sub i32 %123, %122
  store i32 %124, ptr %30, align 4
  %125 = load i32, ptr %12, align 4
  %126 = mul i32 %125, 1
  %127 = load i32, ptr %31, align 4
  %128 = sub i32 %127, %126
  store i32 %128, ptr %31, align 4
  br label %129

129:                                              ; preds = %169, %112
  %130 = load i32, ptr %12, align 4
  store i32 %130, ptr %32, align 4
  br label %131

131:                                              ; preds = %152, %129
  br label %132

132:                                              ; preds = %131
  %133 = load ptr, ptr %28, align 8
  %134 = getelementptr inbounds i8, ptr %133, i64 0
  %135 = load i8, ptr %134, align 1
  %136 = zext i8 %135 to i64
  %137 = getelementptr inbounds [256 x i32], ptr %19, i64 0, i64 %136
  %138 = load i32, ptr %137, align 4
  store i32 %138, ptr %33, align 4
  %139 = load i32, ptr %33, align 4
  %140 = trunc i32 %139 to i8
  %141 = load ptr, ptr %29, align 8
  %142 = getelementptr inbounds i8, ptr %141, i64 0
  store i8 %140, ptr %142, align 1
  br label %143

143:                                              ; preds = %132
  %144 = load ptr, ptr %28, align 8
  %145 = ptrtoint ptr %144 to i64
  %146 = add nsw i64 %145, 1
  %147 = inttoptr i64 %146 to ptr
  store ptr %147, ptr %28, align 8
  %148 = load ptr, ptr %29, align 8
  %149 = ptrtoint ptr %148 to i64
  %150 = add nsw i64 %149, 1
  %151 = inttoptr i64 %150 to ptr
  store ptr %151, ptr %29, align 8
  br label %152

152:                                              ; preds = %143
  %153 = load i32, ptr %32, align 4
  %154 = add i32 %153, -1
  store i32 %154, ptr %32, align 4
  %155 = icmp ugt i32 %154, 0
  br i1 %155, label %131, label %156, !llvm.loop !51

156:                                              ; preds = %152
  %157 = load ptr, ptr %28, align 8
  %158 = ptrtoint ptr %157 to i64
  %159 = load i32, ptr %30, align 4
  %160 = sext i32 %159 to i64
  %161 = add nsw i64 %158, %160
  %162 = inttoptr i64 %161 to ptr
  store ptr %162, ptr %28, align 8
  %163 = load ptr, ptr %29, align 8
  %164 = ptrtoint ptr %163 to i64
  %165 = load i32, ptr %31, align 4
  %166 = sext i32 %165 to i64
  %167 = add nsw i64 %164, %166
  %168 = inttoptr i64 %167 to ptr
  store ptr %168, ptr %29, align 8
  br label %169

169:                                              ; preds = %156
  %170 = load i32, ptr %13, align 4
  %171 = add i32 %170, -1
  store i32 %171, ptr %13, align 4
  %172 = icmp ugt i32 %171, 0
  br i1 %172, label %129, label %173, !llvm.loop !52

173:                                              ; preds = %169
  br label %174

174:                                              ; preds = %173
  ret void
}