; Function Attrs: nofree norecurse nosync nounwind memory(readwrite, inaccessiblemem: none) uwtable
define hidden void @ByteIndexedBmToByteGrayXparBgCopy(ptr noundef %0, ptr noundef %1, i32 noundef %2, i32 noundef %3, i32 noundef %4, ptr nocapture noundef readonly %5, ptr nocapture noundef readonly %6, ptr nocapture readnone %7, ptr nocapture readnone %8) #1 {
  %10 = alloca [256 x i32], align 16
  %11 = getelementptr inbounds i8, ptr %5, i64 40
  %12 = load ptr, ptr %11, align 8
  %13 = getelementptr inbounds i8, ptr %5, i64 36
  %14 = load i32, ptr %13, align 4
  %15 = icmp ugt i32 %14, 255
  br i1 %15, label %.loopexit, label %16

16:                                               ; preds = %9
  %17 = shl nuw nsw i32 %14, 2
  %.idx = zext nneg i32 %17 to i64
  br label %18

18:                                               ; preds = %18, %16
  %.045.idx = phi i64 [ %.idx, %16 ], [ %.045.add, %18 ]
  %.045.ptr = getelementptr inbounds i8, ptr %10, i64 %.045.idx
  store i32 %4, ptr %.045.ptr, align 4
  %.045.add = add nuw nsw i64 %.045.idx, 4
  %19 = icmp ult i64 %.045.idx, 1020
  br i1 %19, label %18, label %.loopexit, !llvm.loop !45

.loopexit:                                        ; preds = %18, %9
  %.044 = phi i32 [ 256, %9 ], [ %14, %18 ]
  %umax = tail call i32 @llvm.umax.i32(i32 %.044, i32 1)
  %wide.trip.count = zext nneg i32 %umax to i64
  br label %20

20:                                               ; preds = %37, %.loopexit
  %indvars.iv = phi i64 [ %indvars.iv.next, %37 ], [ 0, %.loopexit ]
  %21 = getelementptr inbounds i32, ptr %12, i64 %indvars.iv
  %22 = load i32, ptr %21, align 4
  %23 = icmp slt i32 %22, 0
  br i1 %23, label %24, label %37

24:                                               ; preds = %20
  %25 = and i32 %22, 255
  %26 = lshr i32 %22, 8
  %27 = and i32 %26, 255
  %28 = lshr i32 %22, 16
  %29 = and i32 %28, 255
  %30 = mul nuw nsw i32 %29, 77
  %31 = mul nuw nsw i32 %27, 150
  %32 = mul nuw nsw i32 %25, 29
  %33 = add nuw nsw i32 %32, 128
  %34 = add nuw nsw i32 %33, %31
  %35 = add nuw nsw i32 %34, %30
  %36 = lshr i32 %35, 8
  br label %37

37:                                               ; preds = %20, %24
  %.sink = phi i32 [ %36, %24 ], [ %4, %20 ]
  %38 = getelementptr inbounds [256 x i32], ptr %10, i64 0, i64 %indvars.iv
  store i32 %.sink, ptr %38, align 4
  %indvars.iv.next = add nuw nsw i64 %indvars.iv, 1
  %exitcond.not = icmp eq i64 %indvars.iv.next, %wide.trip.count
  br i1 %exitcond.not, label %39, label %20, !llvm.loop !46

39:                                               ; preds = %37
  %40 = getelementptr inbounds i8, ptr %5, i64 32
  %41 = load i32, ptr %40, align 8
  %42 = getelementptr inbounds i8, ptr %6, i64 32
  %43 = load i32, ptr %42, align 8
  %44 = sub i32 %41, %2
  %45 = sub i32 %43, %2
  %46 = sext i32 %44 to i64
  %47 = sext i32 %45 to i64
  br label %48

48:                                               ; preds = %62, %39
  %.042 = phi ptr [ %0, %39 ], [ %64, %62 ]
  %.041 = phi ptr [ %1, %39 ], [ %66, %62 ]
  %.0 = phi i32 [ %3, %39 ], [ %67, %62 ]
  br label %49

49:                                               ; preds = %49, %48
  %.143 = phi ptr [ %.042, %48 ], [ %57, %49 ]
  %.1 = phi ptr [ %.041, %48 ], [ %60, %49 ]
  %.040 = phi i32 [ %2, %48 ], [ %61, %49 ]
  %50 = load i8, ptr %.143, align 1
  %51 = zext i8 %50 to i64
  %52 = getelementptr inbounds [256 x i32], ptr %10, i64 0, i64 %51
  %53 = load i32, ptr %52, align 4
  %54 = trunc i32 %53 to i8
  store i8 %54, ptr %.1, align 1
  %55 = ptrtoint ptr %.143 to i64
  %56 = add nsw i64 %55, 1
  %57 = inttoptr i64 %56 to ptr
  %58 = ptrtoint ptr %.1 to i64
  %59 = add nsw i64 %58, 1
  %60 = inttoptr i64 %59 to ptr
  %61 = add i32 %.040, -1
  %.not = icmp eq i32 %61, 0
  br i1 %.not, label %62, label %49, !llvm.loop !47

62:                                               ; preds = %49
  %63 = add nsw i64 %56, %46
  %64 = inttoptr i64 %63 to ptr
  %65 = add nsw i64 %59, %47
  %66 = inttoptr i64 %65 to ptr
  %67 = add i32 %.0, -1
  %.not52 = icmp eq i32 %67, 0
  br i1 %.not52, label %68, label %48, !llvm.loop !48

68:                                               ; preds = %62
  ret void
}